target datalayout = "e-m:e-p270:32:32-p271:32:32-p272:64:64-i64:64-i128:128-f80:128-n8:16:32:64-S128"
target triple = "x86_64-pc-linux-gnu"

@.str.2 = private unnamed_addr constant [2 x i8] c"*\00", align 1

; Function Attrs: mustprogress nounwind uwtable
define hidden void @_ZNK11mpn_manager8trace_nlEPKjj(ptr noundef nonnull align 1 dereferenceable(1) %0, ptr noundef %1, i32 noundef %2) #6 align 2 {
  %4 = alloca ptr, align 8
  %5 = alloca ptr, align 8
  %6 = alloca i32, align 4
  store ptr %0, ptr %4, align 8, !tbaa !3
  store ptr %1, ptr %5, align 8, !tbaa !8
  store i32 %2, ptr %6, align 4, !tbaa !10
  ret void
}

; Function Attrs: mustprogress nounwind uwtable
define hidden void @_ZNK11mpn_manager5traceEPKjjS1_jPKc(ptr noundef nonnull align 1 dereferenceable(1) %0, ptr noundef %1, i32 noundef %2, ptr noundef %3, i32 noundef %4, ptr noundef %5) #6 align 2 {
  %7 = alloca ptr, align 8
  %8 = alloca ptr, align 8
  %9 = alloca i32, align 4
  %10 = alloca ptr, align 8
  %11 = alloca i32, align 4
  %12 = alloca ptr, align 8
  store ptr %0, ptr %7, align 8, !tbaa !3
  store ptr %1, ptr %8, align 8, !tbaa !8
  store i32 %2, ptr %9, align 4, !tbaa !10
  store ptr %3, ptr %10, align 8, !tbaa !8
  store i32 %4, ptr %11, align 4, !tbaa !10
  store ptr %5, ptr %12, align 8, !tbaa !20
  ret void
}

; Function Attrs: mustprogress uwtable
define hidden noundef zeroext i1 @_ZNK11mpn_manager3mulEPKjjS1_jPj(ptr noundef nonnull align 1 dereferenceable(1) %0, ptr noundef %1, i32 noundef %2, ptr noundef %3, i32 noundef %4, ptr noundef %5) #4 align 2 {
  %7 = alloca ptr, align 8
  %8 = alloca ptr, align 8
  %9 = alloca i32, align 4
  %10 = alloca ptr, align 8
  %11 = alloca i32, align 4
  %12 = alloca ptr, align 8
  %13 = alloca i32, align 4
  %14 = alloca i32, align 4
  %15 = alloca i32, align 4
  %16 = alloca i32, align 4
  %17 = alloca i32, align 4
  %18 = alloca i32, align 4
  %19 = alloca i64, align 8
  store ptr %0, ptr %7, align 8, !tbaa !3
  store ptr %1, ptr %8, align 8, !tbaa !8
  store i32 %2, ptr %9, align 4, !tbaa !10
  store ptr %3, ptr %10, align 8, !tbaa !8
  store i32 %4, ptr %11, align 4, !tbaa !10
  store ptr %5, ptr %12, align 8, !tbaa !8
  %20 = load ptr, ptr %7, align 8
  %21 = load ptr, ptr %8, align 8, !tbaa !8
  %22 = load i32, ptr %9, align 4, !tbaa !10
  %23 = load ptr, ptr %10, align 8, !tbaa !8
  %24 = load i32, ptr %11, align 4, !tbaa !10
  call void @_ZNK11mpn_manager5traceEPKjjS1_jPKc(ptr noundef nonnull align 1 dereferenceable(1) %20, ptr noundef %21, i32 noundef %22, ptr noundef %23, i32 noundef %24, ptr noundef @.str.2)
  call void @llvm.lifetime.start.p0(i64 4, ptr %13) #3
  call void @llvm.lifetime.start.p0(i64 4, ptr %14) #3
  call void @llvm.lifetime.start.p0(i64 4, ptr %15) #3
  store i32 0, ptr %15, align 4, !tbaa !10
  br label %25

25:                                               ; preds = %35, %6
  %26 = load i32, ptr %15, align 4, !tbaa !10
  %27 = load i32, ptr %9, align 4, !tbaa !10
  %28 = icmp ult i32 %26, %27
  br i1 %28, label %30, label %29

29:                                               ; preds = %25
  call void @llvm.lifetime.end.p0(i64 4, ptr %15) #3
  br label %38

30:                                               ; preds = %25
  %31 = load ptr, ptr %12, align 8, !tbaa !8
  %32 = load i32, ptr %15, align 4, !tbaa !10
  %33 = zext i32 %32 to i64
  %34 = getelementptr inbounds nuw i32, ptr %31, i64 %33
  store i32 0, ptr %34, align 4, !tbaa !10
  br label %35

35:                                               ; preds = %30
  %36 = load i32, ptr %15, align 4, !tbaa !10
  %37 = add i32 %36, 1
  store i32 %37, ptr %15, align 4, !tbaa !10
  br label %25, !llvm.loop !23

38:                                               ; preds = %29
  call void @llvm.lifetime.start.p0(i64 4, ptr %16) #3
  store i32 0, ptr %16, align 4, !tbaa !10
  br label %39

39:                                               ; preds = %112, %38
  %40 = load i32, ptr %16, align 4, !tbaa !10
  %41 = load i32, ptr %11, align 4, !tbaa !10
  %42 = icmp ult i32 %40, %41
  br i1 %42, label %44, label %43

43:                                               ; preds = %39
  call void @llvm.lifetime.end.p0(i64 4, ptr %16) #3
  br label %115

44:                                               ; preds = %39
  call void @llvm.lifetime.start.p0(i64 4, ptr %17) #3
  %45 = load ptr, ptr %10, align 8, !tbaa !8
  %46 = load i32, ptr %16, align 4, !tbaa !10
  %47 = zext i32 %46 to i64
  %48 = getelementptr inbounds nuw i32, ptr %45, i64 %47
  %49 = load i32, ptr %48, align 4, !tbaa !10
  store i32 %49, ptr %17, align 4, !tbaa !10
  %50 = load i32, ptr %17, align 4, !tbaa !10
  %51 = icmp eq i32 %50, 0
  br i1 %51, label %52, label %59

52:                                               ; preds = %44
  %53 = load ptr, ptr %12, align 8, !tbaa !8
  %54 = load i32, ptr %16, align 4, !tbaa !10
  %55 = load i32, ptr %9, align 4, !tbaa !10
  %56 = add i32 %54, %55
  %57 = zext i32 %56 to i64
  %58 = getelementptr inbounds nuw i32, ptr %53, i64 %57
  store i32 0, ptr %58, align 4, !tbaa !10
  br label %111

59:                                               ; preds = %44
  store i32 0, ptr %14, align 4, !tbaa !10
  store i32 0, ptr %13, align 4, !tbaa !10
  br label %60

60:                                               ; preds = %100, %59
  %61 = load i32, ptr %13, align 4, !tbaa !10
  %62 = load i32, ptr %9, align 4, !tbaa !10
  %63 = icmp ult i32 %61, %62
  br i1 %63, label %64, label %103

64:                                               ; preds = %60
  call void @llvm.lifetime.start.p0(i64 4, ptr %18) #3
  %65 = load ptr, ptr %8, align 8, !tbaa !8
  %66 = load i32, ptr %13, align 4, !tbaa !10
  %67 = zext i32 %66 to i64
  %68 = getelementptr inbounds nuw i32, ptr %65, i64 %67
  %69 = load i32, ptr %68, align 4, !tbaa !10
  store i32 %69, ptr %18, align 4, !tbaa !10
  call void @llvm.lifetime.start.p0(i64 8, ptr %19) #3
  %70 = load i32, ptr %18, align 4, !tbaa !10
  %71 = zext i32 %70 to i64
  %72 = load i32, ptr %17, align 4, !tbaa !10
  %73 = zext i32 %72 to i64
  %74 = mul i64 %71, %73
  %75 = load ptr, ptr %12, align 8, !tbaa !8
  %76 = load i32, ptr %13, align 4, !tbaa !10
  %77 = load i32, ptr %16, align 4, !tbaa !10
  %78 = add i32 %76, %77
  %79 = zext i32 %78 to i64
  %80 = getelementptr inbounds nuw i32, ptr %75, i64 %79
  %81 = load i32, ptr %80, align 4, !tbaa !10
  %82 = zext i32 %81 to i64
  %83 = add i64 %74, %82
  %84 = load i32, ptr %14, align 4, !tbaa !10
  %85 = zext i32 %84 to i64
  %86 = add i64 %83, %85
  store i64 %86, ptr %19, align 8, !tbaa !24
  %87 = load i64, ptr %19, align 8, !tbaa !24
  %88 = shl i64 %87, 32
  %89 = lshr i64 %88, 32
  %90 = trunc i64 %89 to i32
  %91 = load ptr, ptr %12, align 8, !tbaa !8
  %92 = load i32, ptr %13, align 4, !tbaa !10
  %93 = load i32, ptr %16, align 4, !tbaa !10
  %94 = add i32 %92, %93
  %95 = zext i32 %94 to i64
  %96 = getelementptr inbounds nuw i32, ptr %91, i64 %95
  store i32 %90, ptr %96, align 4, !tbaa !10
  %97 = load i64, ptr %19, align 8, !tbaa !24
  %98 = lshr i64 %97, 32
  %99 = trunc i64 %98 to i32
  store i32 %99, ptr %14, align 4, !tbaa !10
  call void @llvm.lifetime.end.p0(i64 8, ptr %19) #3
  call void @llvm.lifetime.end.p0(i64 4, ptr %18) #3
  br label %100

100:                                              ; preds = %64
  %101 = load i32, ptr %13, align 4, !tbaa !10
  %102 = add i32 %101, 1
  store i32 %102, ptr %13, align 4, !tbaa !10
  br label %60, !llvm.loop !26

103:                                              ; preds = %60
  %104 = load i32, ptr %14, align 4, !tbaa !10
  %105 = load ptr, ptr %12, align 8, !tbaa !8
  %106 = load i32, ptr %16, align 4, !tbaa !10
  %107 = load i32, ptr %9, align 4, !tbaa !10
  %108 = add i32 %106, %107
  %109 = zext i32 %108 to i64
  %110 = getelementptr inbounds nuw i32, ptr %105, i64 %109
  store i32 %104, ptr %110, align 4, !tbaa !10
  br label %111

111:                                              ; preds = %103, %52
  call void @llvm.lifetime.end.p0(i64 4, ptr %17) #3
  br label %112

112:                                              ; preds = %111
  %113 = load i32, ptr %16, align 4, !tbaa !10
  %114 = add i32 %113, 1
  store i32 %114, ptr %16, align 4, !tbaa !10
  br label %39, !llvm.loop !27

115:                                              ; preds = %43
  %116 = load ptr, ptr %12, align 8, !tbaa !8
  %117 = load i32, ptr %9, align 4, !tbaa !10
  %118 = load i32, ptr %11, align 4, !tbaa !10
  %119 = add i32 %117, %118
  call void @_ZNK11mpn_manager8trace_nlEPKjj(ptr noundef nonnull align 1 dereferenceable(1) %20, ptr noundef %116, i32 noundef %119)
  call void @llvm.lifetime.end.p0(i64 4, ptr %14) #3
  call void @llvm.lifetime.end.p0(i64 4, ptr %13) #3
  ret i1 true
}