; Function Attrs: mustprogress nofree norecurse nosync nounwind memory(argmem: readwrite) uwtable
define hidden noundef zeroext i1 @_ZNK11mpn_manager3mulEPKjjS1_jPj(ptr noundef nonnull readnone align 1 captures(none) dereferenceable(1) %0, ptr noundef readonly captures(none) %1, i32 noundef %2, ptr noundef readonly captures(none) %3, i32 noundef %4, ptr noundef captures(none) %5) local_unnamed_addr #6 align 2 {
  %.not = icmp eq i32 %2, 0
  br i1 %.not, label %.preheader47, label %.preheader47.thread

.preheader47:                                     ; preds = %6
  %.not55 = icmp eq i32 %4, 0
  br i1 %.not55, label %._crit_edge54, label %.lr.ph53.split.preheader

.preheader47.thread:                              ; preds = %6
  %7 = zext i32 %2 to i64
  %8 = shl nuw nsw i64 %7, 2
  tail call void @llvm.memset.p0.i64(ptr align 4 %5, i8 0, i64 %8, i1 false), !tbaa !3
  %.not5570 = icmp eq i32 %4, 0
  br i1 %.not5570, label %._crit_edge54, label %.lr.ph53.split.us.preheader

.lr.ph53.split.us.preheader:                      ; preds = %.preheader47.thread
  %wide.trip.count63 = zext i32 %4 to i64
  %wide.trip.count = zext i32 %2 to i64
  br label %.lr.ph53.split.us

.lr.ph53.split.preheader:                         ; preds = %.preheader47
  %wide.trip.count68 = zext i32 %4 to i64
  br label %.lr.ph53.split

.lr.ph53.split.us:                                ; preds = %.lr.ph53.split.us.preheader, %26
  %indvars.iv60 = phi i64 [ 0, %.lr.ph53.split.us.preheader ], [ %indvars.iv.next61, %26 ]
  %9 = getelementptr inbounds nuw i32, ptr %3, i64 %indvars.iv60
  %10 = load i32, ptr %9, align 4, !tbaa !3
  %11 = icmp eq i32 %10, 0
  br i1 %11, label %26, label %.preheader.us

12:                                               ; preds = %.preheader.us, %12
  %indvars.iv = phi i64 [ 0, %.preheader.us ], [ %indvars.iv.next, %12 ]
  %.04149.us = phi i64 [ 0, %.preheader.us ], [ %25, %12 ]
  %13 = getelementptr inbounds nuw i32, ptr %1, i64 %indvars.iv
  %14 = load i32, ptr %13, align 4, !tbaa !3
  %15 = zext i32 %14 to i64
  %16 = mul nuw i64 %15, %30
  %17 = add nuw i64 %indvars.iv, %indvars.iv60
  %18 = and i64 %17, 4294967295
  %19 = getelementptr inbounds nuw i32, ptr %5, i64 %18
  %20 = load i32, ptr %19, align 4, !tbaa !3
  %21 = zext i32 %20 to i64
  %22 = add nuw nsw i64 %.04149.us, %21
  %23 = add nuw i64 %22, %16
  %24 = trunc i64 %23 to i32
  store i32 %24, ptr %19, align 4, !tbaa !3
  %25 = lshr i64 %23, 32
  %indvars.iv.next = add nuw nsw i64 %indvars.iv, 1
  %exitcond.not = icmp eq i64 %indvars.iv.next, %wide.trip.count
  br i1 %exitcond.not, label %._crit_edge.us, label %12, !llvm.loop !12

26:                                               ; preds = %.lr.ph53.split.us, %._crit_edge.us
  %.sink = phi i32 [ %31, %._crit_edge.us ], [ 0, %.lr.ph53.split.us ]
  %.sink75 = trunc i64 %indvars.iv60 to i32
  %27 = add i32 %2, %.sink75
  %28 = zext i32 %27 to i64
  %29 = getelementptr inbounds nuw i32, ptr %5, i64 %28
  store i32 %.sink, ptr %29, align 4, !tbaa !3
  %indvars.iv.next61 = add nuw nsw i64 %indvars.iv60, 1
  %exitcond64.not = icmp eq i64 %indvars.iv.next61, %wide.trip.count63
  br i1 %exitcond64.not, label %._crit_edge54, label %.lr.ph53.split.us, !llvm.loop !13

.preheader.us:                                    ; preds = %.lr.ph53.split.us
  %30 = zext i32 %10 to i64
  br label %12

._crit_edge.us:                                   ; preds = %12
  %31 = trunc nuw i64 %25 to i32
  br label %26

._crit_edge54:                                    ; preds = %26, %.lr.ph53.split, %.preheader47.thread, %.preheader47
  ret i1 true

.lr.ph53.split:                                   ; preds = %.lr.ph53.split.preheader, %.lr.ph53.split
  %indvars.iv65 = phi i64 [ 0, %.lr.ph53.split.preheader ], [ %indvars.iv.next66, %.lr.ph53.split ]
  %32 = getelementptr inbounds nuw i32, ptr %5, i64 %indvars.iv65
  store i32 0, ptr %32, align 4, !tbaa !3
  %indvars.iv.next66 = add nuw nsw i64 %indvars.iv65, 1
  %exitcond69.not = icmp eq i64 %indvars.iv.next66, %wide.trip.count68
  br i1 %exitcond69.not, label %._crit_edge54, label %.lr.ph53.split, !llvm.loop !13
}